target datalayout = "e-m:e-p270:32:32-p271:32:32-p272:64:64-i64:64-i128:128-f80:128-n8:16:32:64-S128"
target triple = "x86_64-unknown-linux-gnu"

%"class.icu_75::LocaleBuilder" = type { %"class.icu_75::UObject", i32, [9 x i8], [5 x i8], [4 x i8], ptr, ptr }
%"class.icu_75::UObject" = type { ptr }
%"class.icu_75::StringPiece" = type <{ ptr, i32, [4 x i8] }>

; Function Attrs: mustprogress nounwind uwtable
define linkonce_odr noundef signext i8 @_ZNK6icu_7511StringPiece5emptyEv(ptr noundef nonnull align 8 dereferenceable(12) %this) #0 comdat align 2 {
entry:
  %this.addr = alloca ptr, align 8
  store ptr %this, ptr %this.addr, align 8
  %this1 = load ptr, ptr %this.addr, align 8
  %length_ = getelementptr inbounds %"class.icu_75::StringPiece", ptr %this1, i32 0, i32 1
  %0 = load i32, ptr %length_, align 8
  %cmp = icmp eq i32 %0, 0
  %conv = zext i1 %cmp to i8
  ret i8 %conv
}

; Function Attrs: mustprogress nounwind uwtable
define linkonce_odr noundef i32 @_ZNK6icu_7511StringPiece6lengthEv(ptr noundef nonnull align 8 dereferenceable(12) %this) #0 comdat align 2 {
entry:
  %this.addr = alloca ptr, align 8
  store ptr %this, ptr %this.addr, align 8
  %this1 = load ptr, ptr %this.addr, align 8
  %length_ = getelementptr inbounds %"class.icu_75::StringPiece", ptr %this1, i32 0, i32 1
  %0 = load i32, ptr %length_, align 8
  ret i32 %0
}

; Function Attrs: mustprogress nounwind uwtable
define linkonce_odr noundef ptr @_ZNK6icu_7511StringPiece4dataEv(ptr noundef nonnull align 8 dereferenceable(12) %this) #0 comdat align 2 {
entry:
  %this.addr = alloca ptr, align 8
  store ptr %this, ptr %this.addr, align 8
  %this1 = load ptr, ptr %this.addr, align 8
  %ptr_ = getelementptr inbounds %"class.icu_75::StringPiece", ptr %this1, i32 0, i32 0
  %0 = load ptr, ptr %ptr_, align 8
  ret ptr %0
}

; Function Attrs: mustprogress nounwind uwtable
define internal noundef signext i8 @_ZL9U_FAILURE10UErrorCode(i32 noundef %code) #0 {
entry:
  %code.addr = alloca i32, align 4
  store i32 %code, ptr %code.addr, align 4
  %0 = load i32, ptr %code.addr, align 4
  %cmp = icmp sgt i32 %0, 0
  %conv = zext i1 %cmp to i8
  ret i8 %conv
}

; Function Attrs: mustprogress uwtable
define noundef nonnull align 8 dereferenceable(48) ptr @_ZN6icu_7513LocaleBuilder23setUnicodeLocaleKeywordENS_11StringPieceES1_(ptr noundef nonnull align 8 dereferenceable(48) %this, ptr %key.coerce0, i32 %key.coerce1, ptr %type.coerce0, i32 %type.coerce1) #1 align 2 {
entry:
  %retval = alloca ptr, align 8
  %key = alloca %"class.icu_75::StringPiece", align 8
  %type = alloca %"class.icu_75::StringPiece", align 8
  %this.addr = alloca ptr, align 8
  %agg.tmp = alloca %"class.icu_75::StringPiece", align 8
  %agg.tmp26 = alloca %"class.icu_75::StringPiece", align 8
  %0 = getelementptr inbounds { ptr, i32 }, ptr %key, i32 0, i32 0
  store ptr %key.coerce0, ptr %0, align 8
  %1 = getelementptr inbounds { ptr, i32 }, ptr %key, i32 0, i32 1
  store i32 %key.coerce1, ptr %1, align 8
  %2 = getelementptr inbounds { ptr, i32 }, ptr %type, i32 0, i32 0
  store ptr %type.coerce0, ptr %2, align 8
  %3 = getelementptr inbounds { ptr, i32 }, ptr %type, i32 0, i32 1
  store i32 %type.coerce1, ptr %3, align 8
  store ptr %this, ptr %this.addr, align 8
  %this1 = load ptr, ptr %this.addr, align 8
  %status_ = getelementptr inbounds %"class.icu_75::LocaleBuilder", ptr %this1, i32 0, i32 1
  %4 = load i32, ptr %status_, align 8
  %call = call noundef signext i8 @_ZL9U_FAILURE10UErrorCode(i32 noundef %4)
  %tobool = icmp ne i8 %call, 0
  br i1 %tobool, label %if.then, label %if.end

if.then:                                          ; preds = %entry
  store ptr %this1, ptr %retval, align 8
  br label %return

if.end:                                           ; preds = %entry
  %call2 = call noundef ptr @_ZNK6icu_7511StringPiece4dataEv(ptr noundef nonnull align 8 dereferenceable(12) %key)
  %call3 = call noundef i32 @_ZNK6icu_7511StringPiece6lengthEv(ptr noundef nonnull align 8 dereferenceable(12) %key)
  %call4 = call signext i8 @ultag_isUnicodeLocaleKey_75(ptr noundef %call2, i32 noundef %call3)
  %tobool5 = icmp ne i8 %call4, 0
  br i1 %tobool5, label %lor.lhs.false, label %if.then12

lor.lhs.false:                                    ; preds = %if.end
  %call6 = call noundef signext i8 @_ZNK6icu_7511StringPiece5emptyEv(ptr noundef nonnull align 8 dereferenceable(12) %type)
  %tobool7 = icmp ne i8 %call6, 0
  br i1 %tobool7, label %if.end14, label %land.lhs.true

land.lhs.true:                                    ; preds = %lor.lhs.false
  %call8 = call noundef ptr @_ZNK6icu_7511StringPiece4dataEv(ptr noundef nonnull align 8 dereferenceable(12) %type)
  %call9 = call noundef i32 @_ZNK6icu_7511StringPiece6lengthEv(ptr noundef nonnull align 8 dereferenceable(12) %type)
  %call10 = call signext i8 @ultag_isUnicodeLocaleType_75(ptr noundef %call8, i32 noundef %call9)
  %tobool11 = icmp ne i8 %call10, 0
  br i1 %tobool11, label %if.end14, label %if.then12

if.then12:                                        ; preds = %land.lhs.true, %if.end
  %status_13 = getelementptr inbounds %"class.icu_75::LocaleBuilder", ptr %this1, i32 0, i32 1
  store i32 1, ptr %status_13, align 8
  store ptr %this1, ptr %retval, align 8
  br label %return

if.end14:                                         ; preds = %land.lhs.true, %lor.lhs.false
  %extensions_ = getelementptr inbounds %"class.icu_75::LocaleBuilder", ptr %this1, i32 0, i32 6
  %5 = load ptr, ptr %extensions_, align 8
  %cmp = icmp eq ptr %5, null
  br i1 %cmp, label %if.then15, label %if.end24

if.then15:                                        ; preds = %if.end14
  %call16 = call noundef nonnull align 8 dereferenceable(217) ptr @_ZN6icu_756Locale7getRootEv()
  %call17 = call noundef ptr @_ZNK6icu_756Locale5cloneEv(ptr noundef nonnull align 8 dereferenceable(217) %call16)
  %extensions_18 = getelementptr inbounds %"class.icu_75::LocaleBuilder", ptr %this1, i32 0, i32 6
  store ptr %call17, ptr %extensions_18, align 8
  %extensions_19 = getelementptr inbounds %"class.icu_75::LocaleBuilder", ptr %this1, i32 0, i32 6
  %6 = load ptr, ptr %extensions_19, align 8
  %cmp20 = icmp eq ptr %6, null
  br i1 %cmp20, label %if.then21, label %if.end23

if.then21:                                        ; preds = %if.then15
  %status_22 = getelementptr inbounds %"class.icu_75::LocaleBuilder", ptr %this1, i32 0, i32 1
  store i32 7, ptr %status_22, align 8
  store ptr %this1, ptr %retval, align 8
  br label %return

if.end23:                                         ; preds = %if.then15
  br label %if.end24

if.end24:                                         ; preds = %if.end23, %if.end14
  %extensions_25 = getelementptr inbounds %"class.icu_75::LocaleBuilder", ptr %this1, i32 0, i32 6
  %7 = load ptr, ptr %extensions_25, align 8
  call void @llvm.memcpy.p0.p0.i64(ptr align 8 %agg.tmp, ptr align 8 %key, i64 16, i1 false)
  call void @llvm.memcpy.p0.p0.i64(ptr align 8 %agg.tmp26, ptr align 8 %type, i64 16, i1 false)
  %status_27 = getelementptr inbounds %"class.icu_75::LocaleBuilder", ptr %this1, i32 0, i32 1
  %8 = getelementptr inbounds { ptr, i32 }, ptr %agg.tmp, i32 0, i32 0
  %9 = load ptr, ptr %8, align 8
  %10 = getelementptr inbounds { ptr, i32 }, ptr %agg.tmp, i32 0, i32 1
  %11 = load i32, ptr %10, align 8
  %12 = getelementptr inbounds { ptr, i32 }, ptr %agg.tmp26, i32 0, i32 0
  %13 = load ptr, ptr %12, align 8
  %14 = getelementptr inbounds { ptr, i32 }, ptr %agg.tmp26, i32 0, i32 1
  %15 = load i32, ptr %14, align 8
  call void @_ZN6icu_756Locale22setUnicodeKeywordValueENS_11StringPieceES1_R10UErrorCode(ptr noundef nonnull align 8 dereferenceable(217) %7, ptr %9, i32 %11, ptr %13, i32 %15, ptr noundef nonnull align 4 dereferenceable(4) %status_27)
  store ptr %this1, ptr %retval, align 8
  br label %return

return:                                           ; preds = %if.end24, %if.then21, %if.then12, %if.then
  %16 = load ptr, ptr %retval, align 8
  ret ptr %16
}