; Function Attrs: mustprogress uwtable
define noundef nonnull align 8 dereferenceable(48) ptr @_ZN6icu_7513LocaleBuilder23setUnicodeLocaleKeywordENS_11StringPieceES1_(ptr noundef nonnull returned align 8 dereferenceable(48) %this, ptr %key.coerce0, i32 %key.coerce1, ptr %type.coerce0, i32 %type.coerce1) local_unnamed_addr #1 align 2 {
entry:
  %status_ = getelementptr inbounds i8, ptr %this, i64 8
  %0 = load i32, ptr %status_, align 8
  %cmp.i = icmp slt i32 %0, 1
  br i1 %cmp.i, label %if.end, label %return

if.end:                                           ; preds = %entry
  %call4 = tail call signext i8 @ultag_isUnicodeLocaleKey_75(ptr noundef %key.coerce0, i32 noundef %key.coerce1)
  %tobool5.not = icmp eq i8 %call4, 0
  br i1 %tobool5.not, label %if.then12, label %lor.lhs.false

lor.lhs.false:                                    ; preds = %if.end
  %cmp.i2.not = icmp eq i32 %type.coerce1, 0
  br i1 %cmp.i2.not, label %if.end14, label %land.lhs.true

land.lhs.true:                                    ; preds = %lor.lhs.false
  %call10 = tail call signext i8 @ultag_isUnicodeLocaleType_75(ptr noundef %type.coerce0, i32 noundef %type.coerce1)
  %tobool11.not = icmp eq i8 %call10, 0
  br i1 %tobool11.not, label %if.then12, label %if.end14

if.then12:                                        ; preds = %land.lhs.true, %if.end
  store i32 1, ptr %status_, align 8
  br label %return

if.end14:                                         ; preds = %land.lhs.true, %lor.lhs.false
  %extensions_ = getelementptr inbounds i8, ptr %this, i64 40
  %1 = load ptr, ptr %extensions_, align 8
  %cmp = icmp eq ptr %1, null
  br i1 %cmp, label %if.then15, label %if.end24

if.then15:                                        ; preds = %if.end14
  %call16 = tail call noundef nonnull align 8 dereferenceable(217) ptr @_ZN6icu_756Locale7getRootEv()
  %call17 = tail call noundef ptr @_ZNK6icu_756Locale5cloneEv(ptr noundef nonnull align 8 dereferenceable(217) %call16)
  store ptr %call17, ptr %extensions_, align 8
  %cmp20 = icmp eq ptr %call17, null
  br i1 %cmp20, label %if.then21, label %if.end24

if.then21:                                        ; preds = %if.then15
  store i32 7, ptr %status_, align 8
  br label %return

if.end24:                                         ; preds = %if.then15, %if.end14
  %2 = phi ptr [ %call17, %if.then15 ], [ %1, %if.end14 ]
  tail call void @_ZN6icu_756Locale22setUnicodeKeywordValueENS_11StringPieceES1_R10UErrorCode(ptr noundef nonnull align 8 dereferenceable(217) %2, ptr %key.coerce0, i32 %key.coerce1, ptr %type.coerce0, i32 %type.coerce1, ptr noundef nonnull align 4 dereferenceable(4) %status_)
  br label %return

return:                                           ; preds = %entry, %if.end24, %if.then21, %if.then12
  ret ptr %this
}